
work/rv32i/I-AND-01.elf:     file format elf64-littleriscv


Disassembly of section .text.init:

0000000080000000 <_etext>:
    80000000:	0480006f          	j	80000048 <reset_vector>

0000000080000004 <trap_vector>:
    80000004:	34202f73          	csrr	t5,mcause
    80000008:	00800f93          	li	t6,8
    8000000c:	03ff0863          	beq	t5,t6,8000003c <write_tohost>
    80000010:	00900f93          	li	t6,9
    80000014:	03ff0463          	beq	t5,t6,8000003c <write_tohost>
    80000018:	00b00f93          	li	t6,11
    8000001c:	03ff0063          	beq	t5,t6,8000003c <write_tohost>
    80000020:	00000f13          	li	t5,0
    80000024:	000f0463          	beqz	t5,8000002c <trap_vector+0x28>
    80000028:	000f0067          	jr	t5
    8000002c:	34202f73          	csrr	t5,mcause
    80000030:	000f5463          	bgez	t5,80000038 <handle_exception>
    80000034:	0040006f          	j	80000038 <handle_exception>

0000000080000038 <handle_exception>:
    80000038:	5391e193          	ori	gp,gp,1337

000000008000003c <write_tohost>:
    8000003c:	00000f17          	auipc	t5,0x0
    80000040:	6c3f2223          	sw	gp,1732(t5) # 80000700 <tohost>
    80000044:	ff9ff06f          	j	8000003c <write_tohost>

0000000080000048 <reset_vector>:
    80000048:	f1402573          	csrr	a0,mhartid
    8000004c:	00051063          	bnez	a0,8000004c <reset_vector+0x4>
    80000050:	00000297          	auipc	t0,0x0
    80000054:	01028293          	addi	t0,t0,16 # 80000060 <reset_vector+0x18>
    80000058:	30529073          	csrw	mtvec,t0
    8000005c:	18005073          	csrwi	satp,0
    80000060:	00000297          	auipc	t0,0x0
    80000064:	01c28293          	addi	t0,t0,28 # 8000007c <reset_vector+0x34>
    80000068:	30529073          	csrw	mtvec,t0
    8000006c:	fff00293          	li	t0,-1
    80000070:	3b029073          	csrw	pmpaddr0,t0
    80000074:	01f00293          	li	t0,31
    80000078:	3a029073          	csrw	pmpcfg0,t0
    8000007c:	00000297          	auipc	t0,0x0
    80000080:	01828293          	addi	t0,t0,24 # 80000094 <reset_vector+0x4c>
    80000084:	30529073          	csrw	mtvec,t0
    80000088:	30205073          	csrwi	medeleg,0
    8000008c:	30305073          	csrwi	mideleg,0
    80000090:	30405073          	csrwi	mie,0
    80000094:	00000193          	li	gp,0
    80000098:	00000297          	auipc	t0,0x0
    8000009c:	f6c28293          	addi	t0,t0,-148 # 80000004 <trap_vector>
    800000a0:	30529073          	csrw	mtvec,t0
    800000a4:	00100513          	li	a0,1
    800000a8:	01f51513          	slli	a0,a0,0x1f
    800000ac:	02055463          	bgez	a0,800000d4 <reset_vector+0x8c>
    800000b0:	0ff0000f          	fence
    800000b4:	00100193          	li	gp,1
    800000b8:	fc018ee3          	beqz	gp,80000094 <reset_vector+0x4c>
    800000bc:	00119193          	slli	gp,gp,0x1
    800000c0:	0011e193          	ori	gp,gp,1
    800000c4:	00000097          	auipc	ra,0x0
    800000c8:	33008093          	addi	ra,ra,816 # 800003f4 <end_testcode>
    800000cc:	00008067          	ret
    800000d0:	00000073          	ecall
    800000d4:	00000293          	li	t0,0
    800000d8:	00028e63          	beqz	t0,800000f4 <reset_vector+0xac>
    800000dc:	10529073          	csrw	stvec,t0
    800000e0:	0000b2b7          	lui	t0,0xb
    800000e4:	1092829b          	addiw	t0,t0,265
    800000e8:	30229073          	csrw	medeleg,t0
    800000ec:	30202373          	csrr	t1,medeleg
    800000f0:	f46294e3          	bne	t0,t1,80000038 <handle_exception>
    800000f4:	30005073          	csrwi	mstatus,0
    800000f8:	00002537          	lui	a0,0x2
    800000fc:	8005051b          	addiw	a0,a0,-2048
    80000100:	30052073          	csrs	mstatus,a0
    80000104:	00000297          	auipc	t0,0x0
    80000108:	01428293          	addi	t0,t0,20 # 80000118 <begin_testcode>
    8000010c:	34129073          	csrw	mepc,t0
    80000110:	f1402573          	csrr	a0,mhartid
    80000114:	30200073          	mret

0000000080000118 <begin_testcode>:
    80000118:	00000297          	auipc	t0,0x0
    8000011c:	2e828293          	addi	t0,t0,744 # 80000400 <begin_signature>
    80000120:	fff00f93          	li	t6,-1
    80000124:	00000813          	li	a6,0
    80000128:	010ff033          	and	zero,t6,a6
    8000012c:	0002a023          	sw	zero,0(t0)
    80000130:	00100f13          	li	t5,1
    80000134:	80100793          	li	a5,-2047
    80000138:	00ff70b3          	and	ra,t5,a5
    8000013c:	0012a223          	sw	ra,4(t0)
    80000140:	00000e93          	li	t4,0
    80000144:	fff00713          	li	a4,-1
    80000148:	00eef133          	and	sp,t4,a4
    8000014c:	0022a423          	sw	sp,8(t0)
    80000150:	7ff00e13          	li	t3,2047
    80000154:	fffff6b7          	lui	a3,0xfffff
    80000158:	dcc6869b          	addiw	a3,a3,-564
    8000015c:	00de71b3          	and	gp,t3,a3
    80000160:	0032a623          	sw	gp,12(t0)
    80000164:	00000d93          	li	s11,0
    80000168:	0010061b          	addiw	a2,zero,1
    8000016c:	01f61613          	slli	a2,a2,0x1f
    80000170:	00cdf233          	and	tp,s11,a2
    80000174:	0042a823          	sw	tp,16(t0)
    80000178:	00000097          	auipc	ra,0x0
    8000017c:	29c08093          	addi	ra,ra,668 # 80000414 <test_2_res>
    80000180:	00001d37          	lui	s10,0x1
    80000184:	800d0d1b          	addiw	s10,s10,-2048
    80000188:	000015b7          	lui	a1,0x1
    8000018c:	2345859b          	addiw	a1,a1,564
    80000190:	00bd72b3          	and	t0,s10,a1
    80000194:	0050a023          	sw	t0,0(ra)
    80000198:	07654cb7          	lui	s9,0x7654
    8000019c:	321c8c9b          	addiw	s9,s9,801
    800001a0:	0010051b          	addiw	a0,zero,1
    800001a4:	02051513          	slli	a0,a0,0x20
    800001a8:	fff50513          	addi	a0,a0,-1 # 1fff <_etext-0x7fffe001>
    800001ac:	00acf333          	and	t1,s9,a0
    800001b0:	0060a223          	sw	t1,4(ra)
    800001b4:	80000c37          	lui	s8,0x80000
    800001b8:	fffc0c1b          	addiw	s8,s8,-1
    800001bc:	00100493          	li	s1,1
    800001c0:	009c73b3          	and	t2,s8,s1
    800001c4:	0070a423          	sw	t2,8(ra)
    800001c8:	00100b93          	li	s7,1
    800001cc:	80000437          	lui	s0,0x80000
    800001d0:	fff4041b          	addiw	s0,s0,-1
    800001d4:	008bf433          	and	s0,s7,s0
    800001d8:	0080a623          	sw	s0,12(ra)
    800001dc:	00100b1b          	addiw	s6,zero,1
    800001e0:	020b1b13          	slli	s6,s6,0x20
    800001e4:	fffb0b13          	addi	s6,s6,-1
    800001e8:	076543b7          	lui	t2,0x7654
    800001ec:	3213839b          	addiw	t2,t2,801
    800001f0:	007b74b3          	and	s1,s6,t2
    800001f4:	0090a823          	sw	s1,16(ra)
    800001f8:	00000097          	auipc	ra,0x0
    800001fc:	23008093          	addi	ra,ra,560 # 80000428 <test_3_res>
    80000200:	00001ab7          	lui	s5,0x1
    80000204:	234a8a9b          	addiw	s5,s5,564
    80000208:	00001337          	lui	t1,0x1
    8000020c:	8003031b          	addiw	t1,t1,-2048
    80000210:	006af533          	and	a0,s5,t1
    80000214:	00a0a023          	sw	a0,0(ra)
    80000218:	00100a1b          	addiw	s4,zero,1
    8000021c:	01fa1a13          	slli	s4,s4,0x1f
    80000220:	00000293          	li	t0,0
    80000224:	005a75b3          	and	a1,s4,t0
    80000228:	00b0a223          	sw	a1,4(ra)
    8000022c:	fffff9b7          	lui	s3,0xfffff
    80000230:	dcc9899b          	addiw	s3,s3,-564
    80000234:	7ff00213          	li	tp,2047
    80000238:	0049f633          	and	a2,s3,tp
    8000023c:	00c0a423          	sw	a2,8(ra)
    80000240:	fff00913          	li	s2,-1
    80000244:	fff00193          	li	gp,-1
    80000248:	003976b3          	and	a3,s2,gp
    8000024c:	00d0a623          	sw	a3,12(ra)
    80000250:	80100893          	li	a7,-2047
    80000254:	00100113          	li	sp,1
    80000258:	0028f733          	and	a4,a7,sp
    8000025c:	00e0a823          	sw	a4,16(ra)
    80000260:	00000117          	auipc	sp,0x0
    80000264:	1dc10113          	addi	sp,sp,476 # 8000043c <test_4_res>
    80000268:	00000813          	li	a6,0
    8000026c:	00000093          	li	ra,0
    80000270:	001877b3          	and	a5,a6,ra
    80000274:	00f12023          	sw	a5,0(sp)
    80000278:	fff00793          	li	a5,-1
    8000027c:	00000013          	nop
    80000280:	0007f833          	and	a6,a5,zero
    80000284:	01012223          	sw	a6,4(sp)
    80000288:	00100713          	li	a4,1
    8000028c:	80100f93          	li	t6,-2047
    80000290:	01f778b3          	and	a7,a4,t6
    80000294:	01112423          	sw	a7,8(sp)
    80000298:	00000693          	li	a3,0
    8000029c:	fff00f13          	li	t5,-1
    800002a0:	01e6f933          	and	s2,a3,t5
    800002a4:	01212623          	sw	s2,12(sp)
    800002a8:	7ff00613          	li	a2,2047
    800002ac:	fffffeb7          	lui	t4,0xfffff
    800002b0:	dcce8e9b          	addiw	t4,t4,-564
    800002b4:	01d679b3          	and	s3,a2,t4
    800002b8:	01312823          	sw	s3,16(sp)
    800002bc:	00000097          	auipc	ra,0x0
    800002c0:	19408093          	addi	ra,ra,404 # 80000450 <test_5_res>
    800002c4:	00000593          	li	a1,0
    800002c8:	00100e1b          	addiw	t3,zero,1
    800002cc:	01fe1e13          	slli	t3,t3,0x1f
    800002d0:	01c5fa33          	and	s4,a1,t3
    800002d4:	0140a023          	sw	s4,0(ra)
    800002d8:	00001537          	lui	a0,0x1
    800002dc:	8005051b          	addiw	a0,a0,-2048
    800002e0:	00001db7          	lui	s11,0x1
    800002e4:	234d8d9b          	addiw	s11,s11,564
    800002e8:	01b57ab3          	and	s5,a0,s11
    800002ec:	0150a223          	sw	s5,4(ra)
    800002f0:	076544b7          	lui	s1,0x7654
    800002f4:	3214849b          	addiw	s1,s1,801
    800002f8:	00100d1b          	addiw	s10,zero,1
    800002fc:	020d1d13          	slli	s10,s10,0x20
    80000300:	fffd0d13          	addi	s10,s10,-1 # fff <_etext-0x7ffff001>
    80000304:	01a4fb33          	and	s6,s1,s10
    80000308:	0160a423          	sw	s6,8(ra)
    8000030c:	80000437          	lui	s0,0x80000
    80000310:	fff4041b          	addiw	s0,s0,-1
    80000314:	00100c93          	li	s9,1
    80000318:	01947bb3          	and	s7,s0,s9
    8000031c:	0170a623          	sw	s7,12(ra)
    80000320:	00100393          	li	t2,1
    80000324:	80000c37          	lui	s8,0x80000
    80000328:	fffc0c1b          	addiw	s8,s8,-1
    8000032c:	0183fc33          	and	s8,t2,s8
    80000330:	0180a823          	sw	s8,16(ra)
    80000334:	00000097          	auipc	ra,0x0
    80000338:	13008093          	addi	ra,ra,304 # 80000464 <test_6_res>
    8000033c:	0010031b          	addiw	t1,zero,1
    80000340:	02031313          	slli	t1,t1,0x20
    80000344:	fff30313          	addi	t1,t1,-1 # fff <_etext-0x7ffff001>
    80000348:	07654bb7          	lui	s7,0x7654
    8000034c:	321b8b9b          	addiw	s7,s7,801
    80000350:	01737cb3          	and	s9,t1,s7
    80000354:	0190a023          	sw	s9,0(ra)
    80000358:	000012b7          	lui	t0,0x1
    8000035c:	2342829b          	addiw	t0,t0,564
    80000360:	00001b37          	lui	s6,0x1
    80000364:	800b0b1b          	addiw	s6,s6,-2048
    80000368:	0162fd33          	and	s10,t0,s6
    8000036c:	01a0a223          	sw	s10,4(ra)
    80000370:	0010021b          	addiw	tp,zero,1
    80000374:	01f21213          	slli	tp,tp,0x1f
    80000378:	00000a93          	li	s5,0
    8000037c:	01527db3          	and	s11,tp,s5
    80000380:	01b0a423          	sw	s11,8(ra)
    80000384:	fffff1b7          	lui	gp,0xfffff
    80000388:	dcc1819b          	addiw	gp,gp,-564
    8000038c:	7ff00a13          	li	s4,2047
    80000390:	0141fe33          	and	t3,gp,s4
    80000394:	01c0a623          	sw	t3,12(ra)
    80000398:	fff00113          	li	sp,-1
    8000039c:	fff00993          	li	s3,-1
    800003a0:	01317eb3          	and	t4,sp,s3
    800003a4:	01d0a823          	sw	t4,16(ra)
    800003a8:	00000117          	auipc	sp,0x0
    800003ac:	0d010113          	addi	sp,sp,208 # 80000478 <test_7_res>
    800003b0:	80100093          	li	ra,-2047
    800003b4:	00100913          	li	s2,1
    800003b8:	0120ff33          	and	t5,ra,s2
    800003bc:	01e12023          	sw	t5,0(sp)
    800003c0:	00000013          	nop
    800003c4:	00000893          	li	a7,0
    800003c8:	01107fb3          	and	t6,zero,a7
    800003cc:	01f12223          	sw	t6,4(sp)
    800003d0:	0ff0000f          	fence
    800003d4:	00100193          	li	gp,1
    800003d8:	d40180e3          	beqz	gp,80000118 <begin_testcode>
    800003dc:	00119193          	slli	gp,gp,0x1
    800003e0:	0011e193          	ori	gp,gp,1
    800003e4:	00000097          	auipc	ra,0x0
    800003e8:	01008093          	addi	ra,ra,16 # 800003f4 <end_testcode>
    800003ec:	00008067          	ret
    800003f0:	00000073          	ecall

00000000800003f4 <end_testcode>:
    800003f4:	00000073          	ecall
    800003f8:	0000                	unimp
	...

Disassembly of section .tohost:

0000000080000700 <tohost>:
	...

0000000080000800 <fromhost>:
	...
