
work/rv32i/I-AUIPC-01.elf:     file format elf64-littleriscv


Disassembly of section .text.init:

0000000080000000 <_etext>:
    80000000:	0480006f          	j	80000048 <reset_vector>

0000000080000004 <trap_vector>:
    80000004:	34202f73          	csrr	t5,mcause
    80000008:	00800f93          	li	t6,8
    8000000c:	03ff0863          	beq	t5,t6,8000003c <write_tohost>
    80000010:	00900f93          	li	t6,9
    80000014:	03ff0463          	beq	t5,t6,8000003c <write_tohost>
    80000018:	00b00f93          	li	t6,11
    8000001c:	03ff0063          	beq	t5,t6,8000003c <write_tohost>
    80000020:	00000f13          	li	t5,0
    80000024:	000f0463          	beqz	t5,8000002c <trap_vector+0x28>
    80000028:	000f0067          	jr	t5
    8000002c:	34202f73          	csrr	t5,mcause
    80000030:	000f5463          	bgez	t5,80000038 <handle_exception>
    80000034:	0040006f          	j	80000038 <handle_exception>

0000000080000038 <handle_exception>:
    80000038:	5391e193          	ori	gp,gp,1337

000000008000003c <write_tohost>:
    8000003c:	00000f17          	auipc	t5,0x0
    80000040:	6c3f2223          	sw	gp,1732(t5) # 80000700 <tohost>
    80000044:	ff9ff06f          	j	8000003c <write_tohost>

0000000080000048 <reset_vector>:
    80000048:	f1402573          	csrr	a0,mhartid
    8000004c:	00051063          	bnez	a0,8000004c <reset_vector+0x4>
    80000050:	00000297          	auipc	t0,0x0
    80000054:	01028293          	addi	t0,t0,16 # 80000060 <reset_vector+0x18>
    80000058:	30529073          	csrw	mtvec,t0
    8000005c:	18005073          	csrwi	satp,0
    80000060:	00000297          	auipc	t0,0x0
    80000064:	01c28293          	addi	t0,t0,28 # 8000007c <reset_vector+0x34>
    80000068:	30529073          	csrw	mtvec,t0
    8000006c:	fff00293          	li	t0,-1
    80000070:	3b029073          	csrw	pmpaddr0,t0
    80000074:	01f00293          	li	t0,31
    80000078:	3a029073          	csrw	pmpcfg0,t0
    8000007c:	00000297          	auipc	t0,0x0
    80000080:	01828293          	addi	t0,t0,24 # 80000094 <reset_vector+0x4c>
    80000084:	30529073          	csrw	mtvec,t0
    80000088:	30205073          	csrwi	medeleg,0
    8000008c:	30305073          	csrwi	mideleg,0
    80000090:	30405073          	csrwi	mie,0
    80000094:	00000193          	li	gp,0
    80000098:	00000297          	auipc	t0,0x0
    8000009c:	f6c28293          	addi	t0,t0,-148 # 80000004 <trap_vector>
    800000a0:	30529073          	csrw	mtvec,t0
    800000a4:	00100513          	li	a0,1
    800000a8:	01f51513          	slli	a0,a0,0x1f
    800000ac:	02055463          	bgez	a0,800000d4 <reset_vector+0x8c>
    800000b0:	0ff0000f          	fence
    800000b4:	00100193          	li	gp,1
    800000b8:	fc018ee3          	beqz	gp,80000094 <reset_vector+0x4c>
    800000bc:	00119193          	slli	gp,gp,0x1
    800000c0:	0011e193          	ori	gp,gp,1
    800000c4:	00000097          	auipc	ra,0x0
    800000c8:	33008093          	addi	ra,ra,816 # 800003f4 <end_testcode>
    800000cc:	00008067          	ret
    800000d0:	00000073          	ecall
    800000d4:	00000293          	li	t0,0
    800000d8:	00028e63          	beqz	t0,800000f4 <reset_vector+0xac>
    800000dc:	10529073          	csrw	stvec,t0
    800000e0:	0000b2b7          	lui	t0,0xb
    800000e4:	1092829b          	addiw	t0,t0,265
    800000e8:	30229073          	csrw	medeleg,t0
    800000ec:	30202373          	csrr	t1,medeleg
    800000f0:	f46294e3          	bne	t0,t1,80000038 <handle_exception>
    800000f4:	30005073          	csrwi	mstatus,0
    800000f8:	00002537          	lui	a0,0x2
    800000fc:	8005051b          	addiw	a0,a0,-2048
    80000100:	30052073          	csrs	mstatus,a0
    80000104:	00000297          	auipc	t0,0x0
    80000108:	01428293          	addi	t0,t0,20 # 80000118 <begin_testcode>
    8000010c:	34129073          	csrw	mepc,t0
    80000110:	f1402573          	csrr	a0,mhartid
    80000114:	30200073          	mret

0000000080000118 <begin_testcode>:
    80000118:	00000297          	auipc	t0,0x0
    8000011c:	2e828293          	addi	t0,t0,744 # 80000400 <begin_signature>
    80000120:	00000017          	auipc	zero,0x0
    80000124:	00000397          	auipc	t2,0x0
    80000128:	ffc38393          	addi	t2,t2,-4 # 80000120 <begin_testcode+0x8>
    8000012c:	40700033          	neg	zero,t2
    80000130:	0002a023          	sw	zero,0(t0)
    80000134:	00000097          	auipc	ra,0x0
    80000138:	00000397          	auipc	t2,0x0
    8000013c:	ffc38393          	addi	t2,t2,-4 # 80000134 <begin_testcode+0x1c>
    80000140:	407080b3          	sub	ra,ra,t2
    80000144:	0012a223          	sw	ra,4(t0)
    80000148:	007ff117          	auipc	sp,0x7ff
    8000014c:	00000397          	auipc	t2,0x0
    80000150:	ffc38393          	addi	t2,t2,-4 # 80000148 <begin_testcode+0x30>
    80000154:	40710133          	sub	sp,sp,t2
    80000158:	0022a423          	sw	sp,8(t0)
    8000015c:	00001197          	auipc	gp,0x1
    80000160:	00000397          	auipc	t2,0x0
    80000164:	ffc38393          	addi	t2,t2,-4 # 8000015c <begin_testcode+0x44>
    80000168:	407181b3          	sub	gp,gp,t2
    8000016c:	0032a623          	sw	gp,12(t0)
    80000170:	01234217          	auipc	tp,0x1234
    80000174:	00000397          	auipc	t2,0x0
    80000178:	ffc38393          	addi	t2,t2,-4 # 80000170 <begin_testcode+0x58>
    8000017c:	40720233          	sub	tp,tp,t2
    80000180:	0042a823          	sw	tp,16(t0)
    80000184:	00000097          	auipc	ra,0x0
    80000188:	29008093          	addi	ra,ra,656 # 80000414 <test_2_res>
    8000018c:	80000297          	auipc	t0,0x80000
    80000190:	00000197          	auipc	gp,0x0
    80000194:	ffc18193          	addi	gp,gp,-4 # 8000018c <begin_testcode+0x74>
    80000198:	403282b3          	sub	t0,t0,gp
    8000019c:	0050a023          	sw	t0,0(ra)
    800001a0:	01234317          	auipc	t1,0x1234
    800001a4:	00000197          	auipc	gp,0x0
    800001a8:	ffc18193          	addi	gp,gp,-4 # 800001a0 <begin_testcode+0x88>
    800001ac:	40330333          	sub	t1,t1,gp
    800001b0:	0060a223          	sw	t1,4(ra)
    800001b4:	fffff397          	auipc	t2,0xfffff
    800001b8:	00000197          	auipc	gp,0x0
    800001bc:	ffc18193          	addi	gp,gp,-4 # 800001b4 <begin_testcode+0x9c>
    800001c0:	403383b3          	sub	t2,t2,gp
    800001c4:	0070a423          	sw	t2,8(ra)
    800001c8:	00001417          	auipc	s0,0x1
    800001cc:	00000197          	auipc	gp,0x0
    800001d0:	ffc18193          	addi	gp,gp,-4 # 800001c8 <begin_testcode+0xb0>
    800001d4:	40340433          	sub	s0,s0,gp
    800001d8:	0080a623          	sw	s0,12(ra)
    800001dc:	7ffff497          	auipc	s1,0x7ffff
    800001e0:	00000197          	auipc	gp,0x0
    800001e4:	ffc18193          	addi	gp,gp,-4 # 800001dc <begin_testcode+0xc4>
    800001e8:	403484b3          	sub	s1,s1,gp
    800001ec:	0090a823          	sw	s1,16(ra)
    800001f0:	00000097          	auipc	ra,0x0
    800001f4:	23808093          	addi	ra,ra,568 # 80000428 <test_3_res>
    800001f8:	54321517          	auipc	a0,0x54321
    800001fc:	00000417          	auipc	s0,0x0
    80000200:	ffc40413          	addi	s0,s0,-4 # 800001f8 <begin_testcode+0xe0>
    80000204:	40850533          	sub	a0,a0,s0
    80000208:	00a0a023          	sw	a0,0(ra)
    8000020c:	00800597          	auipc	a1,0x800
    80000210:	00000417          	auipc	s0,0x0
    80000214:	ffc40413          	addi	s0,s0,-4 # 8000020c <begin_testcode+0xf4>
    80000218:	408585b3          	sub	a1,a1,s0
    8000021c:	00b0a223          	sw	a1,4(ra)
    80000220:	00000617          	auipc	a2,0x0
    80000224:	00000417          	auipc	s0,0x0
    80000228:	ffc40413          	addi	s0,s0,-4 # 80000220 <begin_testcode+0x108>
    8000022c:	40860633          	sub	a2,a2,s0
    80000230:	00c0a423          	sw	a2,8(ra)
    80000234:	007ff697          	auipc	a3,0x7ff
    80000238:	00000417          	auipc	s0,0x0
    8000023c:	ffc40413          	addi	s0,s0,-4 # 80000234 <begin_testcode+0x11c>
    80000240:	408686b3          	sub	a3,a3,s0
    80000244:	00d0a623          	sw	a3,12(ra)
    80000248:	00000717          	auipc	a4,0x0
    8000024c:	00000417          	auipc	s0,0x0
    80000250:	ffc40413          	addi	s0,s0,-4 # 80000248 <begin_testcode+0x130>
    80000254:	40870733          	sub	a4,a4,s0
    80000258:	00e0a823          	sw	a4,16(ra)
    8000025c:	00000117          	auipc	sp,0x0
    80000260:	1e010113          	addi	sp,sp,480 # 8000043c <test_4_res>
    80000264:	00001797          	auipc	a5,0x1
    80000268:	00000217          	auipc	tp,0x0
    8000026c:	ffc20213          	addi	tp,tp,-4 # 80000264 <begin_testcode+0x14c>
    80000270:	404787b3          	sub	a5,a5,tp
    80000274:	00f12023          	sw	a5,0(sp)
    80000278:	00000817          	auipc	a6,0x0
    8000027c:	00000217          	auipc	tp,0x0
    80000280:	ffc20213          	addi	tp,tp,-4 # 80000278 <begin_testcode+0x160>
    80000284:	40480833          	sub	a6,a6,tp
    80000288:	01012223          	sw	a6,4(sp)
    8000028c:	00000897          	auipc	a7,0x0
    80000290:	00000217          	auipc	tp,0x0
    80000294:	ffc20213          	addi	tp,tp,-4 # 8000028c <begin_testcode+0x174>
    80000298:	404888b3          	sub	a7,a7,tp
    8000029c:	01112423          	sw	a7,8(sp)
    800002a0:	007ff917          	auipc	s2,0x7ff
    800002a4:	00000217          	auipc	tp,0x0
    800002a8:	ffc20213          	addi	tp,tp,-4 # 800002a0 <begin_testcode+0x188>
    800002ac:	40490933          	sub	s2,s2,tp
    800002b0:	01212623          	sw	s2,12(sp)
    800002b4:	00001997          	auipc	s3,0x1
    800002b8:	00000217          	auipc	tp,0x0
    800002bc:	ffc20213          	addi	tp,tp,-4 # 800002b4 <begin_testcode+0x19c>
    800002c0:	404989b3          	sub	s3,s3,tp
    800002c4:	01312823          	sw	s3,16(sp)
    800002c8:	00000097          	auipc	ra,0x0
    800002cc:	18808093          	addi	ra,ra,392 # 80000450 <test_5_res>
    800002d0:	01234a17          	auipc	s4,0x1234
    800002d4:	00000197          	auipc	gp,0x0
    800002d8:	ffc18193          	addi	gp,gp,-4 # 800002d0 <begin_testcode+0x1b8>
    800002dc:	403a0a33          	sub	s4,s4,gp
    800002e0:	0140a023          	sw	s4,0(ra)
    800002e4:	80000a97          	auipc	s5,0x80000
    800002e8:	00000197          	auipc	gp,0x0
    800002ec:	ffc18193          	addi	gp,gp,-4 # 800002e4 <begin_testcode+0x1cc>
    800002f0:	403a8ab3          	sub	s5,s5,gp
    800002f4:	0150a223          	sw	s5,4(ra)
    800002f8:	01234b17          	auipc	s6,0x1234
    800002fc:	00000197          	auipc	gp,0x0
    80000300:	ffc18193          	addi	gp,gp,-4 # 800002f8 <begin_testcode+0x1e0>
    80000304:	403b0b33          	sub	s6,s6,gp
    80000308:	0160a423          	sw	s6,8(ra)
    8000030c:	fffffb97          	auipc	s7,0xfffff
    80000310:	00000197          	auipc	gp,0x0
    80000314:	ffc18193          	addi	gp,gp,-4 # 8000030c <begin_testcode+0x1f4>
    80000318:	403b8bb3          	sub	s7,s7,gp
    8000031c:	0170a623          	sw	s7,12(ra)
    80000320:	00001c17          	auipc	s8,0x1
    80000324:	00000197          	auipc	gp,0x0
    80000328:	ffc18193          	addi	gp,gp,-4 # 80000320 <begin_testcode+0x208>
    8000032c:	403c0c33          	sub	s8,s8,gp
    80000330:	0180a823          	sw	s8,16(ra)
    80000334:	00000097          	auipc	ra,0x0
    80000338:	13008093          	addi	ra,ra,304 # 80000464 <test_6_res>
    8000033c:	7ffffc97          	auipc	s9,0x7ffff
    80000340:	00000417          	auipc	s0,0x0
    80000344:	ffc40413          	addi	s0,s0,-4 # 8000033c <begin_testcode+0x224>
    80000348:	408c8cb3          	sub	s9,s9,s0
    8000034c:	0190a023          	sw	s9,0(ra)
    80000350:	54321d17          	auipc	s10,0x54321
    80000354:	00000417          	auipc	s0,0x0
    80000358:	ffc40413          	addi	s0,s0,-4 # 80000350 <begin_testcode+0x238>
    8000035c:	408d0d33          	sub	s10,s10,s0
    80000360:	01a0a223          	sw	s10,4(ra)
    80000364:	00800d97          	auipc	s11,0x800
    80000368:	00000417          	auipc	s0,0x0
    8000036c:	ffc40413          	addi	s0,s0,-4 # 80000364 <begin_testcode+0x24c>
    80000370:	408d8db3          	sub	s11,s11,s0
    80000374:	01b0a423          	sw	s11,8(ra)
    80000378:	00000e17          	auipc	t3,0x0
    8000037c:	00000417          	auipc	s0,0x0
    80000380:	ffc40413          	addi	s0,s0,-4 # 80000378 <begin_testcode+0x260>
    80000384:	408e0e33          	sub	t3,t3,s0
    80000388:	01c0a623          	sw	t3,12(ra)
    8000038c:	007ffe97          	auipc	t4,0x7ff
    80000390:	00000417          	auipc	s0,0x0
    80000394:	ffc40413          	addi	s0,s0,-4 # 8000038c <begin_testcode+0x274>
    80000398:	408e8eb3          	sub	t4,t4,s0
    8000039c:	01d0a823          	sw	t4,16(ra)
    800003a0:	00000117          	auipc	sp,0x0
    800003a4:	0d810113          	addi	sp,sp,216 # 80000478 <test_7_res>
    800003a8:	00000f17          	auipc	t5,0x0
    800003ac:	00000217          	auipc	tp,0x0
    800003b0:	ffc20213          	addi	tp,tp,-4 # 800003a8 <begin_testcode+0x290>
    800003b4:	404f0f33          	sub	t5,t5,tp
    800003b8:	01e12023          	sw	t5,0(sp)
    800003bc:	00001f97          	auipc	t6,0x1
    800003c0:	00000217          	auipc	tp,0x0
    800003c4:	ffc20213          	addi	tp,tp,-4 # 800003bc <begin_testcode+0x2a4>
    800003c8:	404f8fb3          	sub	t6,t6,tp
    800003cc:	01f12223          	sw	t6,4(sp)
    800003d0:	0ff0000f          	fence
    800003d4:	00100193          	li	gp,1
    800003d8:	fe0182e3          	beqz	gp,800003bc <begin_testcode+0x2a4>
    800003dc:	00119193          	slli	gp,gp,0x1
    800003e0:	0011e193          	ori	gp,gp,1
    800003e4:	00000097          	auipc	ra,0x0
    800003e8:	01008093          	addi	ra,ra,16 # 800003f4 <end_testcode>
    800003ec:	00008067          	ret
    800003f0:	00000073          	ecall

00000000800003f4 <end_testcode>:
    800003f4:	00000073          	ecall
    800003f8:	0000                	unimp
	...

Disassembly of section .tohost:

0000000080000700 <tohost>:
	...

0000000080000800 <fromhost>:
	...
