
work/rv32i/I-ECALL-01.elf:     file format elf64-littleriscv


Disassembly of section .text.init:

0000000080000000 <_etext>:
    80000000:	0480006f          	j	80000048 <reset_vector>

0000000080000004 <trap_vector>:
    80000004:	34202f73          	csrr	t5,mcause
    80000008:	00800f93          	li	t6,8
    8000000c:	03ff0863          	beq	t5,t6,8000003c <write_tohost>
    80000010:	00900f93          	li	t6,9
    80000014:	03ff0463          	beq	t5,t6,8000003c <write_tohost>
    80000018:	00b00f93          	li	t6,11
    8000001c:	03ff0063          	beq	t5,t6,8000003c <write_tohost>
    80000020:	00000f13          	li	t5,0
    80000024:	000f0463          	beqz	t5,8000002c <trap_vector+0x28>
    80000028:	000f0067          	jr	t5
    8000002c:	34202f73          	csrr	t5,mcause
    80000030:	000f5463          	bgez	t5,80000038 <handle_exception>
    80000034:	0040006f          	j	80000038 <handle_exception>

0000000080000038 <handle_exception>:
    80000038:	5391e193          	ori	gp,gp,1337

000000008000003c <write_tohost>:
    8000003c:	00000f17          	auipc	t5,0x0
    80000040:	4c3f2223          	sw	gp,1220(t5) # 80000500 <tohost>
    80000044:	ff9ff06f          	j	8000003c <write_tohost>

0000000080000048 <reset_vector>:
    80000048:	f1402573          	csrr	a0,mhartid
    8000004c:	00051063          	bnez	a0,8000004c <reset_vector+0x4>
    80000050:	00000297          	auipc	t0,0x0
    80000054:	01028293          	addi	t0,t0,16 # 80000060 <reset_vector+0x18>
    80000058:	30529073          	csrw	mtvec,t0
    8000005c:	18005073          	csrwi	satp,0
    80000060:	00000297          	auipc	t0,0x0
    80000064:	01c28293          	addi	t0,t0,28 # 8000007c <reset_vector+0x34>
    80000068:	30529073          	csrw	mtvec,t0
    8000006c:	fff00293          	li	t0,-1
    80000070:	3b029073          	csrw	pmpaddr0,t0
    80000074:	01f00293          	li	t0,31
    80000078:	3a029073          	csrw	pmpcfg0,t0
    8000007c:	00000297          	auipc	t0,0x0
    80000080:	01828293          	addi	t0,t0,24 # 80000094 <reset_vector+0x4c>
    80000084:	30529073          	csrw	mtvec,t0
    80000088:	30205073          	csrwi	medeleg,0
    8000008c:	30305073          	csrwi	mideleg,0
    80000090:	30405073          	csrwi	mie,0
    80000094:	00000193          	li	gp,0
    80000098:	00000297          	auipc	t0,0x0
    8000009c:	f6c28293          	addi	t0,t0,-148 # 80000004 <trap_vector>
    800000a0:	30529073          	csrw	mtvec,t0
    800000a4:	00100513          	li	a0,1
    800000a8:	01f51513          	slli	a0,a0,0x1f
    800000ac:	02055463          	bgez	a0,800000d4 <reset_vector+0x8c>
    800000b0:	0ff0000f          	fence
    800000b4:	00100193          	li	gp,1
    800000b8:	fc018ee3          	beqz	gp,80000094 <reset_vector+0x4c>
    800000bc:	00119193          	slli	gp,gp,0x1
    800000c0:	0011e193          	ori	gp,gp,1
    800000c4:	00000097          	auipc	ra,0x0
    800000c8:	0c808093          	addi	ra,ra,200 # 8000018c <end_testcode>
    800000cc:	00008067          	ret
    800000d0:	00000073          	ecall
    800000d4:	00000293          	li	t0,0
    800000d8:	00028e63          	beqz	t0,800000f4 <reset_vector+0xac>
    800000dc:	10529073          	csrw	stvec,t0
    800000e0:	0000b2b7          	lui	t0,0xb
    800000e4:	1092829b          	addiw	t0,t0,265
    800000e8:	30229073          	csrw	medeleg,t0
    800000ec:	30202373          	csrr	t1,medeleg
    800000f0:	f46294e3          	bne	t0,t1,80000038 <handle_exception>
    800000f4:	30005073          	csrwi	mstatus,0
    800000f8:	00002537          	lui	a0,0x2
    800000fc:	8005051b          	addiw	a0,a0,-2048
    80000100:	30052073          	csrs	mstatus,a0
    80000104:	00000297          	auipc	t0,0x0
    80000108:	01428293          	addi	t0,t0,20 # 80000118 <begin_testcode>
    8000010c:	34129073          	csrw	mepc,t0
    80000110:	f1402573          	csrr	a0,mhartid
    80000114:	30200073          	mret

0000000080000118 <begin_testcode>:
    80000118:	00000097          	auipc	ra,0x0
    8000011c:	02c08093          	addi	ra,ra,44 # 80000144 <_trap_handler>
    80000120:	30509ff3          	csrrw	t6,mtvec,ra
    80000124:	00000097          	auipc	ra,0x0
    80000128:	0dc08093          	addi	ra,ra,220 # 80000200 <begin_signature>
    8000012c:	11111137          	lui	sp,0x11111
    80000130:	1111011b          	addiw	sp,sp,273
    80000134:	00000073          	ecall
    80000138:	0000a023          	sw	zero,0(ra)
    8000013c:	305f9073          	csrw	mtvec,t6
    80000140:	0280006f          	j	80000168 <test_end>

0000000080000144 <_trap_handler>:
    80000144:	34102f73          	csrr	t5,mepc
    80000148:	004f0f13          	addi	t5,t5,4
    8000014c:	341f1073          	csrw	mepc,t5
    80000150:	34202f73          	csrr	t5,mcause
    80000154:	01e0a023          	sw	t5,0(ra)
    80000158:	0020a223          	sw	sp,4(ra)
    8000015c:	0000a423          	sw	zero,8(ra)
    80000160:	00c08093          	addi	ra,ra,12
    80000164:	30200073          	mret

0000000080000168 <test_end>:
    80000168:	0ff0000f          	fence
    8000016c:	00100193          	li	gp,1
    80000170:	fa0184e3          	beqz	gp,80000118 <begin_testcode>
    80000174:	00119193          	slli	gp,gp,0x1
    80000178:	0011e193          	ori	gp,gp,1
    8000017c:	00000097          	auipc	ra,0x0
    80000180:	01008093          	addi	ra,ra,16 # 8000018c <end_testcode>
    80000184:	00008067          	ret
    80000188:	00000073          	ecall

000000008000018c <end_testcode>:
    8000018c:	00000073          	ecall
	...

Disassembly of section .tohost:

0000000080000500 <tohost>:
	...

0000000080000600 <fromhost>:
	...
