
work/rv32i/I-RF_size-01.elf:     file format elf64-littleriscv


Disassembly of section .text.init:

0000000080000000 <_etext>:
    80000000:	0480006f          	j	80000048 <reset_vector>

0000000080000004 <trap_vector>:
    80000004:	34202f73          	csrr	t5,mcause
    80000008:	00800f93          	li	t6,8
    8000000c:	03ff0863          	beq	t5,t6,8000003c <write_tohost>
    80000010:	00900f93          	li	t6,9
    80000014:	03ff0463          	beq	t5,t6,8000003c <write_tohost>
    80000018:	00b00f93          	li	t6,11
    8000001c:	03ff0063          	beq	t5,t6,8000003c <write_tohost>
    80000020:	00000f13          	li	t5,0
    80000024:	000f0463          	beqz	t5,8000002c <trap_vector+0x28>
    80000028:	000f0067          	jr	t5
    8000002c:	34202f73          	csrr	t5,mcause
    80000030:	000f5463          	bgez	t5,80000038 <handle_exception>
    80000034:	0040006f          	j	80000038 <handle_exception>

0000000080000038 <handle_exception>:
    80000038:	5391e193          	ori	gp,gp,1337

000000008000003c <write_tohost>:
    8000003c:	00000f17          	auipc	t5,0x0
    80000040:	5c3f2223          	sw	gp,1476(t5) # 80000600 <tohost>
    80000044:	ff9ff06f          	j	8000003c <write_tohost>

0000000080000048 <reset_vector>:
    80000048:	f1402573          	csrr	a0,mhartid
    8000004c:	00051063          	bnez	a0,8000004c <reset_vector+0x4>
    80000050:	00000297          	auipc	t0,0x0
    80000054:	01028293          	addi	t0,t0,16 # 80000060 <reset_vector+0x18>
    80000058:	30529073          	csrw	mtvec,t0
    8000005c:	18005073          	csrwi	satp,0
    80000060:	00000297          	auipc	t0,0x0
    80000064:	01c28293          	addi	t0,t0,28 # 8000007c <reset_vector+0x34>
    80000068:	30529073          	csrw	mtvec,t0
    8000006c:	fff00293          	li	t0,-1
    80000070:	3b029073          	csrw	pmpaddr0,t0
    80000074:	01f00293          	li	t0,31
    80000078:	3a029073          	csrw	pmpcfg0,t0
    8000007c:	00000297          	auipc	t0,0x0
    80000080:	01828293          	addi	t0,t0,24 # 80000094 <reset_vector+0x4c>
    80000084:	30529073          	csrw	mtvec,t0
    80000088:	30205073          	csrwi	medeleg,0
    8000008c:	30305073          	csrwi	mideleg,0
    80000090:	30405073          	csrwi	mie,0
    80000094:	00000193          	li	gp,0
    80000098:	00000297          	auipc	t0,0x0
    8000009c:	f6c28293          	addi	t0,t0,-148 # 80000004 <trap_vector>
    800000a0:	30529073          	csrw	mtvec,t0
    800000a4:	00100513          	li	a0,1
    800000a8:	01f51513          	slli	a0,a0,0x1f
    800000ac:	02055463          	bgez	a0,800000d4 <reset_vector+0x8c>
    800000b0:	0ff0000f          	fence
    800000b4:	00100193          	li	gp,1
    800000b8:	fc018ee3          	beqz	gp,80000094 <reset_vector+0x4c>
    800000bc:	00119193          	slli	gp,gp,0x1
    800000c0:	0011e193          	ori	gp,gp,1
    800000c4:	00000097          	auipc	ra,0x0
    800000c8:	22008093          	addi	ra,ra,544 # 800002e4 <end_testcode>
    800000cc:	00008067          	ret
    800000d0:	00000073          	ecall
    800000d4:	00000293          	li	t0,0
    800000d8:	00028e63          	beqz	t0,800000f4 <reset_vector+0xac>
    800000dc:	10529073          	csrw	stvec,t0
    800000e0:	0000b2b7          	lui	t0,0xb
    800000e4:	1092829b          	addiw	t0,t0,265
    800000e8:	30229073          	csrw	medeleg,t0
    800000ec:	30202373          	csrr	t1,medeleg
    800000f0:	f46294e3          	bne	t0,t1,80000038 <handle_exception>
    800000f4:	30005073          	csrwi	mstatus,0
    800000f8:	00002537          	lui	a0,0x2
    800000fc:	8005051b          	addiw	a0,a0,-2048
    80000100:	30052073          	csrs	mstatus,a0
    80000104:	00000297          	auipc	t0,0x0
    80000108:	01428293          	addi	t0,t0,20 # 80000118 <begin_testcode>
    8000010c:	34129073          	csrw	mepc,t0
    80000110:	f1402573          	csrr	a0,mhartid
    80000114:	30200073          	mret

0000000080000118 <begin_testcode>:
    80000118:	00000817          	auipc	a6,0x0
    8000011c:	1e880813          	addi	a6,a6,488 # 80000300 <begin_signature>
    80000120:	42727037          	lui	zero,0x42727
    80000124:	e6f0001b          	addiw	zero,zero,-401
    80000128:	563330b7          	lui	ra,0x56333
    8000012c:	2490809b          	addiw	ra,ra,585
    80000130:	2d562137          	lui	sp,0x2d562
    80000134:	0521011b          	addiw	sp,sp,82
    80000138:	526971b7          	lui	gp,0x52697
    8000013c:	3631819b          	addiw	gp,gp,867
    80000140:	736b8237          	lui	tp,0x736b8
    80000144:	9202021b          	addiw	tp,tp,-1760
    80000148:	737462b7          	lui	t0,0x73746
    8000014c:	5722829b          	addiw	t0,t0,1394
    80000150:	6e205337          	lui	t1,0x6e205
    80000154:	e6f3031b          	addiw	t1,t1,-401
    80000158:	4d6973b7          	lui	t2,0x4d697
    8000015c:	c613839b          	addiw	t2,t2,-927
    80000160:	6f646437          	lui	s0,0x6f646
    80000164:	1734041b          	addiw	s0,s0,371
    80000168:	6b7944b7          	lui	s1,0x6b794
    8000016c:	0634849b          	addiw	s1,s1,99
    80000170:	74657537          	lui	a0,0x74657
    80000174:	2735051b          	addiw	a0,a0,627
    80000178:	286e75b7          	lui	a1,0x286e7
    8000017c:	f735859b          	addiw	a1,a1,-141
    80000180:	656b2637          	lui	a2,0x656b2
    80000184:	0486061b          	addiw	a2,a2,72
    80000188:	205266b7          	lui	a3,0x20526
    8000018c:	1646869b          	addiw	a3,a3,356
    80000190:	6f6d3737          	lui	a4,0x6f6d3
    80000194:	92c7071b          	addiw	a4,a4,-1748
    80000198:	697037b7          	lui	a5,0x69703
    8000019c:	e637879b          	addiw	a5,a5,-413
    800001a0:	00082023          	sw	zero,0(a6)
    800001a4:	00182223          	sw	ra,4(a6)
    800001a8:	00282423          	sw	sp,8(a6)
    800001ac:	00382623          	sw	gp,12(a6)
    800001b0:	00482823          	sw	tp,16(a6)
    800001b4:	00582a23          	sw	t0,20(a6)
    800001b8:	00682c23          	sw	t1,24(a6)
    800001bc:	00782e23          	sw	t2,28(a6)
    800001c0:	02882023          	sw	s0,32(a6)
    800001c4:	02982223          	sw	s1,36(a6)
    800001c8:	02a82423          	sw	a0,40(a6)
    800001cc:	02b82623          	sw	a1,44(a6)
    800001d0:	02c82823          	sw	a2,48(a6)
    800001d4:	02d82a23          	sw	a3,52(a6)
    800001d8:	02e82c23          	sw	a4,56(a6)
    800001dc:	02f82e23          	sw	a5,60(a6)
    800001e0:	00000217          	auipc	tp,0x0
    800001e4:	16020213          	addi	tp,tp,352 # 80000340 <test_A2_res>
    800001e8:	636f6837          	lui	a6,0x636f6
    800001ec:	4618081b          	addiw	a6,a6,1121
    800001f0:	6a6578b7          	lui	a7,0x6a657
    800001f4:	b408889b          	addiw	a7,a7,-1216
    800001f8:	20287937          	lui	s2,0x20287
    800001fc:	8619091b          	addiw	s2,s2,-1951
    80000200:	616a69b7          	lui	s3,0x616a6
    80000204:	56b9899b          	addiw	s3,s3,1387
    80000208:	61766a37          	lui	s4,0x61766
    8000020c:	520a0a1b          	addiw	s4,s4,1312
    80000210:	2e205ab7          	lui	s5,0x2e205
    80000214:	c65a8a9b          	addiw	s5,s5,-923
    80000218:	636f7b37          	lui	s6,0x636f7
    8000021c:	d29b0b1b          	addiw	s6,s6,-727
    80000220:	73697bb7          	lui	s7,0x73697
    80000224:	02eb8b9b          	addiw	s7,s7,46
    80000228:	66208c37          	lui	s8,0x66208
    8000022c:	96fc0c1b          	addiw	s8,s8,-1681
    80000230:	67652cb7          	lui	s9,0x67652
    80000234:	069c8c9b          	addiw	s9,s9,105
    80000238:	65737d37          	lui	s10,0x65737
    8000023c:	361d0d1b          	addiw	s10,s10,865
    80000240:	75732db7          	lui	s11,0x75732
    80000244:	06dd8d9b          	addiw	s11,s11,109
    80000248:	3a291e37          	lui	t3,0x3a291
    8000024c:	d0ae0e1b          	addiw	t3,t3,-758
    80000250:	68697eb7          	lui	t4,0x68697
    80000254:	320e8e9b          	addiw	t4,t4,800
    80000258:	61642f37          	lui	t5,0x61642
    8000025c:	074f0f1b          	addiw	t5,t5,116
    80000260:	75207fb7          	lui	t6,0x75207
    80000264:	265f8f9b          	addiw	t6,t6,613
    80000268:	01022023          	sw	a6,0(tp) # 0 <_etext-0x80000000>
    8000026c:	01122223          	sw	a7,4(tp) # 4 <_etext-0x7ffffffc>
    80000270:	01222423          	sw	s2,8(tp) # 8 <_etext-0x7ffffff8>
    80000274:	01322623          	sw	s3,12(tp) # c <_etext-0x7ffffff4>
    80000278:	01422823          	sw	s4,16(tp) # 10 <_etext-0x7ffffff0>
    8000027c:	01522a23          	sw	s5,20(tp) # 14 <_etext-0x7fffffec>
    80000280:	01622c23          	sw	s6,24(tp) # 18 <_etext-0x7fffffe8>
    80000284:	01722e23          	sw	s7,28(tp) # 1c <_etext-0x7fffffe4>
    80000288:	03822023          	sw	s8,32(tp) # 20 <_etext-0x7fffffe0>
    8000028c:	03922223          	sw	s9,36(tp) # 24 <_etext-0x7fffffdc>
    80000290:	03a22423          	sw	s10,40(tp) # 28 <_etext-0x7fffffd8>
    80000294:	03b22623          	sw	s11,44(tp) # 2c <_etext-0x7fffffd4>
    80000298:	03c22823          	sw	t3,48(tp) # 30 <_etext-0x7fffffd0>
    8000029c:	03d22a23          	sw	t4,52(tp) # 34 <_etext-0x7fffffcc>
    800002a0:	03e22c23          	sw	t5,56(tp) # 38 <_etext-0x7fffffc8>
    800002a4:	03f22e23          	sw	t6,60(tp) # 3c <_etext-0x7fffffc4>
    800002a8:	00000217          	auipc	tp,0x0
    800002ac:	0d820213          	addi	tp,tp,216 # 80000380 <test_A3_res>
    800002b0:	00022023          	sw	zero,0(tp) # 0 <_etext-0x80000000>
    800002b4:	00122223          	sw	ra,4(tp) # 4 <_etext-0x7ffffffc>
    800002b8:	00222423          	sw	sp,8(tp) # 8 <_etext-0x7ffffff8>
    800002bc:	00322623          	sw	gp,12(tp) # c <_etext-0x7ffffff4>
    800002c0:	0ff0000f          	fence
    800002c4:	00100193          	li	gp,1
    800002c8:	e40188e3          	beqz	gp,80000118 <begin_testcode>
    800002cc:	00119193          	slli	gp,gp,0x1
    800002d0:	0011e193          	ori	gp,gp,1
    800002d4:	00000097          	auipc	ra,0x0
    800002d8:	01008093          	addi	ra,ra,16 # 800002e4 <end_testcode>
    800002dc:	00008067          	ret
    800002e0:	00000073          	ecall

00000000800002e4 <end_testcode>:
    800002e4:	00000073          	ecall
	...

Disassembly of section .tohost:

0000000080000600 <tohost>:
	...

0000000080000700 <fromhost>:
	...
