
work/rv32i/I-SRA-01.elf:     file format elf64-littleriscv


Disassembly of section .text.init:

0000000080000000 <_etext>:
    80000000:	0480006f          	j	80000048 <reset_vector>

0000000080000004 <trap_vector>:
    80000004:	34202f73          	csrr	t5,mcause
    80000008:	00800f93          	li	t6,8
    8000000c:	03ff0863          	beq	t5,t6,8000003c <write_tohost>
    80000010:	00900f93          	li	t6,9
    80000014:	03ff0463          	beq	t5,t6,8000003c <write_tohost>
    80000018:	00b00f93          	li	t6,11
    8000001c:	03ff0063          	beq	t5,t6,8000003c <write_tohost>
    80000020:	00000f13          	li	t5,0
    80000024:	000f0463          	beqz	t5,8000002c <trap_vector+0x28>
    80000028:	000f0067          	jr	t5
    8000002c:	34202f73          	csrr	t5,mcause
    80000030:	000f5463          	bgez	t5,80000038 <handle_exception>
    80000034:	0040006f          	j	80000038 <handle_exception>

0000000080000038 <handle_exception>:
    80000038:	5391e193          	ori	gp,gp,1337

000000008000003c <write_tohost>:
    8000003c:	00000f17          	auipc	t5,0x0
    80000040:	6c3f2223          	sw	gp,1732(t5) # 80000700 <tohost>
    80000044:	ff9ff06f          	j	8000003c <write_tohost>

0000000080000048 <reset_vector>:
    80000048:	f1402573          	csrr	a0,mhartid
    8000004c:	00051063          	bnez	a0,8000004c <reset_vector+0x4>
    80000050:	00000297          	auipc	t0,0x0
    80000054:	01028293          	addi	t0,t0,16 # 80000060 <reset_vector+0x18>
    80000058:	30529073          	csrw	mtvec,t0
    8000005c:	18005073          	csrwi	satp,0
    80000060:	00000297          	auipc	t0,0x0
    80000064:	01c28293          	addi	t0,t0,28 # 8000007c <reset_vector+0x34>
    80000068:	30529073          	csrw	mtvec,t0
    8000006c:	fff00293          	li	t0,-1
    80000070:	3b029073          	csrw	pmpaddr0,t0
    80000074:	01f00293          	li	t0,31
    80000078:	3a029073          	csrw	pmpcfg0,t0
    8000007c:	00000297          	auipc	t0,0x0
    80000080:	01828293          	addi	t0,t0,24 # 80000094 <reset_vector+0x4c>
    80000084:	30529073          	csrw	mtvec,t0
    80000088:	30205073          	csrwi	medeleg,0
    8000008c:	30305073          	csrwi	mideleg,0
    80000090:	30405073          	csrwi	mie,0
    80000094:	00000193          	li	gp,0
    80000098:	00000297          	auipc	t0,0x0
    8000009c:	f6c28293          	addi	t0,t0,-148 # 80000004 <trap_vector>
    800000a0:	30529073          	csrw	mtvec,t0
    800000a4:	00100513          	li	a0,1
    800000a8:	01f51513          	slli	a0,a0,0x1f
    800000ac:	02055463          	bgez	a0,800000d4 <reset_vector+0x8c>
    800000b0:	0ff0000f          	fence
    800000b4:	00100193          	li	gp,1
    800000b8:	fc018ee3          	beqz	gp,80000094 <reset_vector+0x4c>
    800000bc:	00119193          	slli	gp,gp,0x1
    800000c0:	0011e193          	ori	gp,gp,1
    800000c4:	00000097          	auipc	ra,0x0
    800000c8:	2f008093          	addi	ra,ra,752 # 800003b4 <end_testcode>
    800000cc:	00008067          	ret
    800000d0:	00000073          	ecall
    800000d4:	00000293          	li	t0,0
    800000d8:	00028e63          	beqz	t0,800000f4 <reset_vector+0xac>
    800000dc:	10529073          	csrw	stvec,t0
    800000e0:	0000b2b7          	lui	t0,0xb
    800000e4:	1092829b          	addiw	t0,t0,265
    800000e8:	30229073          	csrw	medeleg,t0
    800000ec:	30202373          	csrr	t1,medeleg
    800000f0:	f46294e3          	bne	t0,t1,80000038 <handle_exception>
    800000f4:	30005073          	csrwi	mstatus,0
    800000f8:	00002537          	lui	a0,0x2
    800000fc:	8005051b          	addiw	a0,a0,-2048
    80000100:	30052073          	csrs	mstatus,a0
    80000104:	00000297          	auipc	t0,0x0
    80000108:	01428293          	addi	t0,t0,20 # 80000118 <begin_testcode>
    8000010c:	34129073          	csrw	mepc,t0
    80000110:	f1402573          	csrr	a0,mhartid
    80000114:	30200073          	mret

0000000080000118 <begin_testcode>:
    80000118:	00000297          	auipc	t0,0x0
    8000011c:	2e828293          	addi	t0,t0,744 # 80000400 <begin_signature>
    80000120:	fff00f93          	li	t6,-1
    80000124:	00000813          	li	a6,0
    80000128:	410fd033          	sra	zero,t6,a6
    8000012c:	0002a023          	sw	zero,0(t0)
    80000130:	00100f13          	li	t5,1
    80000134:	00000793          	li	a5,0
    80000138:	40ff50b3          	sra	ra,t5,a5
    8000013c:	0012a223          	sw	ra,4(t0)
    80000140:	00000e93          	li	t4,0
    80000144:	00100713          	li	a4,1
    80000148:	40eed133          	sra	sp,t4,a4
    8000014c:	0022a423          	sw	sp,8(t0)
    80000150:	7ff00e13          	li	t3,2047
    80000154:	00400693          	li	a3,4
    80000158:	40de51b3          	sra	gp,t3,a3
    8000015c:	0032a623          	sw	gp,12(t0)
    80000160:	00000d93          	li	s11,0
    80000164:	00800613          	li	a2,8
    80000168:	40cdd233          	sra	tp,s11,a2
    8000016c:	0042a823          	sw	tp,16(t0)
    80000170:	00000097          	auipc	ra,0x0
    80000174:	2a408093          	addi	ra,ra,676 # 80000414 <test_2_res>
    80000178:	00001d37          	lui	s10,0x1
    8000017c:	800d0d1b          	addiw	s10,s10,-2048
    80000180:	01f00593          	li	a1,31
    80000184:	40bd52b3          	sra	t0,s10,a1
    80000188:	0050a023          	sw	t0,0(ra)
    8000018c:	07654cb7          	lui	s9,0x7654
    80000190:	321c8c9b          	addiw	s9,s9,801
    80000194:	01000513          	li	a0,16
    80000198:	40acd333          	sra	t1,s9,a0
    8000019c:	0060a223          	sw	t1,4(ra)
    800001a0:	80000c37          	lui	s8,0x80000
    800001a4:	fffc0c1b          	addiw	s8,s8,-1
    800001a8:	00100493          	li	s1,1
    800001ac:	409c53b3          	sra	t2,s8,s1
    800001b0:	0070a423          	sw	t2,8(ra)
    800001b4:	00100b93          	li	s7,1
    800001b8:	00000413          	li	s0,0
    800001bc:	408bd433          	sra	s0,s7,s0
    800001c0:	0080a623          	sw	s0,12(ra)
    800001c4:	00100b1b          	addiw	s6,zero,1
    800001c8:	020b1b13          	slli	s6,s6,0x20
    800001cc:	fffb0b13          	addi	s6,s6,-1
    800001d0:	00000393          	li	t2,0
    800001d4:	407b54b3          	sra	s1,s6,t2
    800001d8:	0090a823          	sw	s1,16(ra)
    800001dc:	00000097          	auipc	ra,0x0
    800001e0:	24c08093          	addi	ra,ra,588 # 80000428 <test_3_res>
    800001e4:	00001ab7          	lui	s5,0x1
    800001e8:	234a8a9b          	addiw	s5,s5,564
    800001ec:	00100313          	li	t1,1
    800001f0:	406ad533          	sra	a0,s5,t1
    800001f4:	00a0a023          	sw	a0,0(ra)
    800001f8:	00100a1b          	addiw	s4,zero,1
    800001fc:	01fa1a13          	slli	s4,s4,0x1f
    80000200:	00400293          	li	t0,4
    80000204:	405a55b3          	sra	a1,s4,t0
    80000208:	00b0a223          	sw	a1,4(ra)
    8000020c:	fffff9b7          	lui	s3,0xfffff
    80000210:	dcc9899b          	addiw	s3,s3,-564
    80000214:	00800213          	li	tp,8
    80000218:	4049d633          	sra	a2,s3,tp
    8000021c:	00c0a423          	sw	a2,8(ra)
    80000220:	fff00913          	li	s2,-1
    80000224:	01f00193          	li	gp,31
    80000228:	403956b3          	sra	a3,s2,gp
    8000022c:	00d0a623          	sw	a3,12(ra)
    80000230:	80100893          	li	a7,-2047
    80000234:	01000113          	li	sp,16
    80000238:	4028d733          	sra	a4,a7,sp
    8000023c:	00e0a823          	sw	a4,16(ra)
    80000240:	00000117          	auipc	sp,0x0
    80000244:	1fc10113          	addi	sp,sp,508 # 8000043c <test_4_res>
    80000248:	00000813          	li	a6,0
    8000024c:	00100093          	li	ra,1
    80000250:	401857b3          	sra	a5,a6,ra
    80000254:	00f12023          	sw	a5,0(sp)
    80000258:	fff00793          	li	a5,-1
    8000025c:	00000013          	nop
    80000260:	4007d833          	sra	a6,a5,zero
    80000264:	01012223          	sw	a6,4(sp)
    80000268:	00100713          	li	a4,1
    8000026c:	00000f93          	li	t6,0
    80000270:	41f758b3          	sra	a7,a4,t6
    80000274:	01112423          	sw	a7,8(sp)
    80000278:	00000693          	li	a3,0
    8000027c:	00100f13          	li	t5,1
    80000280:	41e6d933          	sra	s2,a3,t5
    80000284:	01212623          	sw	s2,12(sp)
    80000288:	7ff00613          	li	a2,2047
    8000028c:	00400e93          	li	t4,4
    80000290:	41d659b3          	sra	s3,a2,t4
    80000294:	01312823          	sw	s3,16(sp)
    80000298:	00000097          	auipc	ra,0x0
    8000029c:	1b808093          	addi	ra,ra,440 # 80000450 <test_5_res>
    800002a0:	00000593          	li	a1,0
    800002a4:	00800e13          	li	t3,8
    800002a8:	41c5da33          	sra	s4,a1,t3
    800002ac:	0140a023          	sw	s4,0(ra)
    800002b0:	00001537          	lui	a0,0x1
    800002b4:	8005051b          	addiw	a0,a0,-2048
    800002b8:	01f00d93          	li	s11,31
    800002bc:	41b55ab3          	sra	s5,a0,s11
    800002c0:	0150a223          	sw	s5,4(ra)
    800002c4:	076544b7          	lui	s1,0x7654
    800002c8:	3214849b          	addiw	s1,s1,801
    800002cc:	01000d13          	li	s10,16
    800002d0:	41a4db33          	sra	s6,s1,s10
    800002d4:	0160a423          	sw	s6,8(ra)
    800002d8:	80000437          	lui	s0,0x80000
    800002dc:	fff4041b          	addiw	s0,s0,-1
    800002e0:	00100c93          	li	s9,1
    800002e4:	41945bb3          	sra	s7,s0,s9
    800002e8:	0170a623          	sw	s7,12(ra)
    800002ec:	00100393          	li	t2,1
    800002f0:	00000c13          	li	s8,0
    800002f4:	4183dc33          	sra	s8,t2,s8
    800002f8:	0180a823          	sw	s8,16(ra)
    800002fc:	00000097          	auipc	ra,0x0
    80000300:	16808093          	addi	ra,ra,360 # 80000464 <test_6_res>
    80000304:	0010031b          	addiw	t1,zero,1
    80000308:	02031313          	slli	t1,t1,0x20
    8000030c:	fff30313          	addi	t1,t1,-1
    80000310:	00000b93          	li	s7,0
    80000314:	41735cb3          	sra	s9,t1,s7
    80000318:	0190a023          	sw	s9,0(ra)
    8000031c:	000012b7          	lui	t0,0x1
    80000320:	2342829b          	addiw	t0,t0,564
    80000324:	00100b13          	li	s6,1
    80000328:	4162dd33          	sra	s10,t0,s6
    8000032c:	01a0a223          	sw	s10,4(ra)
    80000330:	0010021b          	addiw	tp,zero,1
    80000334:	01f21213          	slli	tp,tp,0x1f
    80000338:	00400a93          	li	s5,4
    8000033c:	41525db3          	sra	s11,tp,s5
    80000340:	01b0a423          	sw	s11,8(ra)
    80000344:	fffff1b7          	lui	gp,0xfffff
    80000348:	dcc1819b          	addiw	gp,gp,-564
    8000034c:	00800a13          	li	s4,8
    80000350:	4141de33          	sra	t3,gp,s4
    80000354:	01c0a623          	sw	t3,12(ra)
    80000358:	fff00113          	li	sp,-1
    8000035c:	01f00993          	li	s3,31
    80000360:	41315eb3          	sra	t4,sp,s3
    80000364:	01d0a823          	sw	t4,16(ra)
    80000368:	00000117          	auipc	sp,0x0
    8000036c:	11010113          	addi	sp,sp,272 # 80000478 <test_7_res>
    80000370:	80100093          	li	ra,-2047
    80000374:	01000913          	li	s2,16
    80000378:	4120df33          	sra	t5,ra,s2
    8000037c:	01e12023          	sw	t5,0(sp)
    80000380:	00000013          	nop
    80000384:	00100893          	li	a7,1
    80000388:	41105fb3          	sra	t6,zero,a7
    8000038c:	01f12223          	sw	t6,4(sp)
    80000390:	0ff0000f          	fence
    80000394:	00100193          	li	gp,1
    80000398:	d80180e3          	beqz	gp,80000118 <begin_testcode>
    8000039c:	00119193          	slli	gp,gp,0x1
    800003a0:	0011e193          	ori	gp,gp,1
    800003a4:	00000097          	auipc	ra,0x0
    800003a8:	01008093          	addi	ra,ra,16 # 800003b4 <end_testcode>
    800003ac:	00008067          	ret
    800003b0:	00000073          	ecall

00000000800003b4 <end_testcode>:
    800003b4:	00000073          	ecall
    800003b8:	0000                	unimp
	...

Disassembly of section .tohost:

0000000080000700 <tohost>:
	...

0000000080000800 <fromhost>:
	...
